target datalayout = "e-m:e-p270:32:32-p271:32:32-p272:64:64-i64:64-i128:128-f80:128-n8:16:32:64-S128"
target triple = "x86_64-pc-linux-gnu"

%struct.strbuf = type { i64, i64, ptr }
%struct.ipc_server_data = type { i32, ptr, ptr, %struct.strbuf, ptr, ptr, %union.pthread_mutex_t, %union.pthread_cond_t, ptr, i32, i32, i32, i32, i32, i32 }
%union.pthread_mutex_t = type { %struct.__pthread_mutex_s }
%struct.__pthread_mutex_s = type { i32, i32, i32, i32, i32, i16, i16, %struct.__pthread_internal_list }
%struct.__pthread_internal_list = type { ptr, ptr }
%union.pthread_cond_t = type { %struct.__pthread_cond_s }
%struct.__pthread_cond_s = type { %union.__atomic_wide_counter, %union.__atomic_wide_counter, [2 x i32], [2 x i32], i32, i32, [2 x i32] }
%union.__atomic_wide_counter = type { i64 }
%struct.ipc_accept_thread_data = type { i32, ptr, ptr, i32, i32, i64 }

@.str = private unnamed_addr constant [36 x i8] c"compat/simple-ipc/ipc-unix-socket.c\00", align 1
@.str.10 = private unnamed_addr constant [11 x i8] c"ipc-server\00", align 1
@.str.11 = private unnamed_addr constant [18 x i8] c"server-stop-async\00", align 1
@.str.12 = private unnamed_addr constant [2 x i8] c"Q\00", align 1
@.str.13 = private unnamed_addr constant [36 x i8] c"could not write to fd_send_shutdown\00", align 1

; Function Attrs: nounwind uwtable
define internal i32 @fifo_dequeue(ptr noundef %0) #0 {
  %2 = alloca i32, align 4
  %3 = alloca ptr, align 8
  %4 = alloca i32, align 4
  %5 = alloca i32, align 4
  store ptr %0, ptr %3, align 8, !tbaa !44
  call void @llvm.lifetime.start.p0(i64 4, ptr %4) #10
  %6 = load ptr, ptr %3, align 8, !tbaa !44
  %7 = getelementptr inbounds nuw %struct.ipc_server_data, ptr %6, i32 0, i32 10
  %8 = load i32, ptr %7, align 4, !tbaa !74
  %9 = load ptr, ptr %3, align 8, !tbaa !44
  %10 = getelementptr inbounds nuw %struct.ipc_server_data, ptr %9, i32 0, i32 11
  %11 = load i32, ptr %10, align 8, !tbaa !75
  %12 = icmp eq i32 %8, %11
  br i1 %12, label %13, label %14

13:                                               ; preds = %1
  store i32 -1, ptr %2, align 4
  store i32 1, ptr %5, align 4
  br label %48

14:                                               ; preds = %1
  %15 = load ptr, ptr %3, align 8, !tbaa !44
  %16 = getelementptr inbounds nuw %struct.ipc_server_data, ptr %15, i32 0, i32 8
  %17 = load ptr, ptr %16, align 8, !tbaa !53
  %18 = load ptr, ptr %3, align 8, !tbaa !44
  %19 = getelementptr inbounds nuw %struct.ipc_server_data, ptr %18, i32 0, i32 11
  %20 = load i32, ptr %19, align 8, !tbaa !75
  %21 = sext i32 %20 to i64
  %22 = getelementptr inbounds i32, ptr %17, i64 %21
  %23 = load i32, ptr %22, align 4, !tbaa !9
  store i32 %23, ptr %4, align 4, !tbaa !9
  %24 = load ptr, ptr %3, align 8, !tbaa !44
  %25 = getelementptr inbounds nuw %struct.ipc_server_data, ptr %24, i32 0, i32 8
  %26 = load ptr, ptr %25, align 8, !tbaa !53
  %27 = load ptr, ptr %3, align 8, !tbaa !44
  %28 = getelementptr inbounds nuw %struct.ipc_server_data, ptr %27, i32 0, i32 11
  %29 = load i32, ptr %28, align 8, !tbaa !75
  %30 = sext i32 %29 to i64
  %31 = getelementptr inbounds i32, ptr %26, i64 %30
  store i32 -1, ptr %31, align 4, !tbaa !9
  %32 = load ptr, ptr %3, align 8, !tbaa !44
  %33 = getelementptr inbounds nuw %struct.ipc_server_data, ptr %32, i32 0, i32 11
  %34 = load i32, ptr %33, align 8, !tbaa !75
  %35 = add nsw i32 %34, 1
  store i32 %35, ptr %33, align 8, !tbaa !75
  %36 = load ptr, ptr %3, align 8, !tbaa !44
  %37 = getelementptr inbounds nuw %struct.ipc_server_data, ptr %36, i32 0, i32 11
  %38 = load i32, ptr %37, align 8, !tbaa !75
  %39 = load ptr, ptr %3, align 8, !tbaa !44
  %40 = getelementptr inbounds nuw %struct.ipc_server_data, ptr %39, i32 0, i32 9
  %41 = load i32, ptr %40, align 8, !tbaa !52
  %42 = icmp eq i32 %38, %41
  br i1 %42, label %43, label %46

43:                                               ; preds = %14
  %44 = load ptr, ptr %3, align 8, !tbaa !44
  %45 = getelementptr inbounds nuw %struct.ipc_server_data, ptr %44, i32 0, i32 11
  store i32 0, ptr %45, align 8, !tbaa !75
  br label %46

46:                                               ; preds = %43, %14
  %47 = load i32, ptr %4, align 4, !tbaa !9
  store i32 %47, ptr %2, align 4
  store i32 1, ptr %5, align 4
  br label %48

48:                                               ; preds = %46, %13
  call void @llvm.lifetime.end.p0(i64 4, ptr %4) #10
  %49 = load i32, ptr %2, align 4
  ret i32 %49
}

; Function Attrs: inlinehint nounwind uwtable
define internal i32 @const_error() #6 {
  ret i32 -1
}

; Function Attrs: nounwind uwtable
define dso_local i32 @ipc_server_stop_async(ptr noundef %0) #0 {
  %2 = alloca i32, align 4
  %3 = alloca ptr, align 8
  %4 = alloca i32, align 4
  %5 = alloca i32, align 4
  store ptr %0, ptr %3, align 8, !tbaa !44
  call void @llvm.lifetime.start.p0(i64 4, ptr %4) #10
  %6 = load ptr, ptr %3, align 8, !tbaa !44
  %7 = icmp ne ptr %6, null
  br i1 %7, label %9, label %8

8:                                                ; preds = %1
  store i32 0, ptr %2, align 4
  store i32 1, ptr %5, align 4
  br label %46

9:                                                ; preds = %1
  call void (ptr, i32, ptr, ptr, ptr, ...) @trace2_region_enter_fl(ptr noundef @.str, i32 noundef 950, ptr noundef @.str.10, ptr noundef @.str.11, ptr noundef null)
  %10 = load ptr, ptr %3, align 8, !tbaa !44
  %11 = getelementptr inbounds nuw %struct.ipc_server_data, ptr %10, i32 0, i32 12
  %12 = load i32, ptr %11, align 4, !tbaa !72
  %13 = icmp ne i32 %12, 0
  br i1 %13, label %14, label %18

14:                                               ; preds = %9
  %15 = load ptr, ptr %3, align 8, !tbaa !44
  %16 = getelementptr inbounds nuw %struct.ipc_server_data, ptr %15, i32 0, i32 6
  %17 = call i32 @pthread_mutex_lock(ptr noundef %16) #10
  br label %18

18:                                               ; preds = %14, %9
  %19 = load ptr, ptr %3, align 8, !tbaa !44
  %20 = getelementptr inbounds nuw %struct.ipc_server_data, ptr %19, i32 0, i32 13
  store i32 1, ptr %20, align 8, !tbaa !71
  %21 = load ptr, ptr %3, align 8, !tbaa !44
  %22 = getelementptr inbounds nuw %struct.ipc_server_data, ptr %21, i32 0, i32 4
  %23 = load ptr, ptr %22, align 8, !tbaa !54
  %24 = getelementptr inbounds nuw %struct.ipc_accept_thread_data, ptr %23, i32 0, i32 3
  %25 = load i32, ptr %24, align 8, !tbaa !59
  %26 = call i64 @write(i32 noundef %25, ptr noundef @.str.12, i64 noundef 1)
  %27 = icmp slt i64 %26, 0
  br i1 %27, label %28, label %31

28:                                               ; preds = %18
  %29 = call i32 (ptr, ...) @error_errno(ptr noundef @.str.13)
  %30 = call i32 @const_error()
  br label %31

31:                                               ; preds = %28, %18
  br label %32

32:                                               ; preds = %36, %31
  %33 = load ptr, ptr %3, align 8, !tbaa !44
  %34 = call i32 @fifo_dequeue(ptr noundef %33)
  store i32 %34, ptr %4, align 4, !tbaa !9
  %35 = icmp ne i32 %34, -1
  br i1 %35, label %36, label %39

36:                                               ; preds = %32
  %37 = load i32, ptr %4, align 4, !tbaa !9
  %38 = call i32 @close(i32 noundef %37)
  br label %32, !llvm.loop !73

39:                                               ; preds = %32
  %40 = load ptr, ptr %3, align 8, !tbaa !44
  %41 = getelementptr inbounds nuw %struct.ipc_server_data, ptr %40, i32 0, i32 7
  %42 = call i32 @pthread_cond_broadcast(ptr noundef %41) #10
  %43 = load ptr, ptr %3, align 8, !tbaa !44
  %44 = getelementptr inbounds nuw %struct.ipc_server_data, ptr %43, i32 0, i32 6
  %45 = call i32 @pthread_mutex_unlock(ptr noundef %44) #10
  call void (ptr, i32, ptr, ptr, ptr, ...) @trace2_region_leave_fl(ptr noundef @.str, i32 noundef 979, ptr noundef @.str.10, ptr noundef @.str.11, ptr noundef null)
  store i32 0, ptr %2, align 4
  store i32 1, ptr %5, align 4
  br label %46

46:                                               ; preds = %39, %8
  call void @llvm.lifetime.end.p0(i64 4, ptr %4) #10
  %47 = load i32, ptr %2, align 4
  ret i32 %47
}