; Function Attrs: nounwind uwtable
define dso_local noundef i32 @ipc_server_stop_async(ptr noundef %0) local_unnamed_addr #0 {
  %.not = icmp eq ptr %0, null
  br i1 %.not, label %44, label %2

2:                                                ; preds = %1
  tail call void (ptr, i32, ptr, ptr, ptr, ...) @trace2_region_enter_fl(ptr noundef nonnull @.str, i32 noundef 950, ptr noundef nonnull @.str.10, ptr noundef nonnull @.str.11, ptr noundef null) #13
  %3 = getelementptr inbounds nuw i8, ptr %0, i64 172
  %4 = load i32, ptr %3, align 4, !tbaa !58
  %.not10 = icmp eq i32 %4, 0
  br i1 %.not10, label %8, label %5

5:                                                ; preds = %2
  %6 = getelementptr inbounds nuw i8, ptr %0, i64 64
  %7 = tail call i32 @pthread_mutex_lock(ptr noundef nonnull %6) #13
  br label %8

8:                                                ; preds = %5, %2
  %9 = getelementptr inbounds nuw i8, ptr %0, i64 176
  store i32 1, ptr %9, align 8, !tbaa !59
  %10 = getelementptr inbounds nuw i8, ptr %0, i64 48
  %11 = load ptr, ptr %10, align 8, !tbaa !41
  %12 = getelementptr inbounds nuw i8, ptr %11, i64 24
  %13 = load i32, ptr %12, align 8, !tbaa !46
  %14 = tail call i64 @write(i32 noundef %13, ptr noundef nonnull @.str.12, i64 noundef 1) #13
  %15 = icmp slt i64 %14, 0
  br i1 %15, label %16, label %18

16:                                               ; preds = %8
  %17 = tail call i32 (ptr, ...) @error_errno(ptr noundef nonnull @.str.13) #13
  br label %18

18:                                               ; preds = %16, %8
  %19 = getelementptr inbounds nuw i8, ptr %0, i64 152
  %20 = getelementptr inbounds nuw i8, ptr %0, i64 164
  %21 = getelementptr inbounds nuw i8, ptr %0, i64 168
  %22 = load i32, ptr %20, align 4, !tbaa !60
  %23 = load i32, ptr %21, align 8, !tbaa !61
  %24 = icmp eq i32 %22, %23
  br i1 %24, label %fifo_dequeue.exit.thread, label %fifo_dequeue.exit.lr.ph

fifo_dequeue.exit.lr.ph:                          ; preds = %18
  %25 = getelementptr inbounds nuw i8, ptr %0, i64 160
  br label %fifo_dequeue.exit

fifo_dequeue.exit:                                ; preds = %fifo_dequeue.exit.lr.ph, %35
  %26 = phi i32 [ %23, %fifo_dequeue.exit.lr.ph ], [ %38, %35 ]
  %27 = load ptr, ptr %19, align 8, !tbaa !40
  %28 = sext i32 %26 to i64
  %29 = getelementptr inbounds i32, ptr %27, i64 %28
  %30 = load i32, ptr %29, align 4, !tbaa !4
  store i32 -1, ptr %29, align 4, !tbaa !4
  %31 = load i32, ptr %21, align 8, !tbaa !61
  %32 = add nsw i32 %31, 1
  %33 = load i32, ptr %25, align 8, !tbaa !39
  %34 = icmp eq i32 %32, %33
  %spec.store.select.i = select i1 %34, i32 0, i32 %32
  store i32 %spec.store.select.i, ptr %21, align 8
  %.not11 = icmp eq i32 %30, -1
  br i1 %.not11, label %fifo_dequeue.exit.thread, label %35

35:                                               ; preds = %fifo_dequeue.exit
  %36 = tail call i32 @close(i32 noundef %30) #13
  %37 = load i32, ptr %20, align 4, !tbaa !60
  %38 = load i32, ptr %21, align 8, !tbaa !61
  %39 = icmp eq i32 %37, %38
  br i1 %39, label %fifo_dequeue.exit.thread, label %fifo_dequeue.exit, !llvm.loop !62

fifo_dequeue.exit.thread:                         ; preds = %fifo_dequeue.exit, %35, %18
  %40 = getelementptr inbounds nuw i8, ptr %0, i64 104
  %41 = tail call i32 @pthread_cond_broadcast(ptr noundef nonnull %40) #13
  %42 = getelementptr inbounds nuw i8, ptr %0, i64 64
  %43 = tail call i32 @pthread_mutex_unlock(ptr noundef nonnull %42) #13
  tail call void (ptr, i32, ptr, ptr, ptr, ...) @trace2_region_leave_fl(ptr noundef nonnull @.str, i32 noundef 979, ptr noundef nonnull @.str.10, ptr noundef nonnull @.str.11, ptr noundef null) #13
  br label %44

44:                                               ; preds = %1, %fifo_dequeue.exit.thread
  ret i32 0
}